; Function Attrs: nounwind uwtable
define dso_local noundef ptr @data_set_int(ptr noundef returned %0, i64 noundef %1) local_unnamed_addr #0 {
  %.not = icmp eq ptr %0, null
  br i1 %.not, label %12, label %3

3:                                                ; preds = %2
  tail call fastcc void @_release(ptr noundef nonnull %0)
  %4 = getelementptr inbounds nuw i8, ptr %0, i64 4
  store i32 65284, ptr %4, align 4
  %5 = getelementptr inbounds nuw i8, ptr %0, i64 8
  store i64 %1, ptr %5, align 8
  %6 = load i64, ptr getelementptr inbounds nuw (i8, ptr @slurm_conf, i64 320), align 8
  %7 = and i64 %6, 256
  %.not10 = icmp eq i64 %7, 0
  br i1 %.not10, label %12, label %8

8:                                                ; preds = %3
  %9 = tail call i32 @get_log_level() #16
  %10 = icmp sgt i32 %9, 3
  br i1 %10, label %11, label %12

11:                                               ; preds = %8
  tail call void (i32, ptr, ...) @log_var(i32 noundef 4, ptr noundef nonnull @.str.8, ptr noundef nonnull @__func__.data_set_int, ptr noundef nonnull %0, i64 noundef %1) #16
  br label %12

12:                                               ; preds = %11, %8, %3, %2
  ret ptr %0
}